target datalayout = "e-m:e-p270:32:32-p271:32:32-p272:64:64-i64:64-i128:128-f80:128-n8:16:32:64-S128"
target triple = "x86_64-pc-linux-gnu"

@.str.69 = private unnamed_addr constant [7 x i8] c"Accept\00", align 1
@.str.70 = private unnamed_addr constant [6 x i8] c"Defer\00", align 1
@.str.71 = private unnamed_addr constant [7 x i8] c"Reject\00", align 1
@.str.72 = private unnamed_addr constant [10 x i8] c"Blackhole\00", align 1
@.str.73 = private unnamed_addr constant [11 x i8] c"Quarantine\00", align 1
@.str.74 = private unnamed_addr constant [19 x i8] c"Unknown action %s\0A\00", align 1

; Function Attrs: nounwind uwtable
define internal i32 @parse_action(ptr noundef %0) #0 {
  %2 = alloca i32, align 4
  %3 = alloca ptr, align 8
  store ptr %0, ptr %3, align 8
  %4 = load ptr, ptr %3, align 8
  %5 = call i32 @strcasecmp(ptr noundef %4, ptr noundef @.str.69) #10
  %6 = icmp ne i32 %5, 0
  br i1 %6, label %8, label %7

7:                                                ; preds = %1
  store i32 0, ptr %2, align 4
  br label %31

8:                                                ; preds = %1
  %9 = load ptr, ptr %3, align 8
  %10 = call i32 @strcasecmp(ptr noundef %9, ptr noundef @.str.70) #10
  %11 = icmp ne i32 %10, 0
  br i1 %11, label %13, label %12

12:                                               ; preds = %8
  store i32 1, ptr %2, align 4
  br label %31

13:                                               ; preds = %8
  %14 = load ptr, ptr %3, align 8
  %15 = call i32 @strcasecmp(ptr noundef %14, ptr noundef @.str.71) #10
  %16 = icmp ne i32 %15, 0
  br i1 %16, label %18, label %17

17:                                               ; preds = %13
  store i32 2, ptr %2, align 4
  br label %31

18:                                               ; preds = %13
  %19 = load ptr, ptr %3, align 8
  %20 = call i32 @strcasecmp(ptr noundef %19, ptr noundef @.str.72) #10
  %21 = icmp ne i32 %20, 0
  br i1 %21, label %23, label %22

22:                                               ; preds = %18
  store i32 3, ptr %2, align 4
  br label %31

23:                                               ; preds = %18
  %24 = load ptr, ptr %3, align 8
  %25 = call i32 @strcasecmp(ptr noundef %24, ptr noundef @.str.73) #10
  %26 = icmp ne i32 %25, 0
  br i1 %26, label %28, label %27

27:                                               ; preds = %23
  store i32 4, ptr %2, align 4
  br label %31

28:                                               ; preds = %23
  %29 = load ptr, ptr %3, align 8
  %30 = call i32 (i32, ptr, ...) @logg(i32 noundef 5, ptr noundef @.str.74, ptr noundef %29)
  store i32 -1, ptr %2, align 4
  br label %31

31:                                               ; preds = %28, %27, %22, %17, %12, %7
  %32 = load i32, ptr %2, align 4
  ret i32 %32
}