; Function Attrs: nounwind uwtable
define internal fastcc noundef i32 @parse_action(ptr noundef %0) unnamed_addr #0 {
  %2 = tail call i32 @strcasecmp(ptr noundef %0, ptr noundef nonnull @.str.69) #18
  %.not = icmp eq i32 %2, 0
  br i1 %.not, label %13, label %3

3:                                                ; preds = %1
  %4 = tail call i32 @strcasecmp(ptr noundef %0, ptr noundef nonnull @.str.70) #18
  %.not6 = icmp eq i32 %4, 0
  br i1 %.not6, label %13, label %5

5:                                                ; preds = %3
  %6 = tail call i32 @strcasecmp(ptr noundef %0, ptr noundef nonnull @.str.71) #18
  %.not7 = icmp eq i32 %6, 0
  br i1 %.not7, label %13, label %7

7:                                                ; preds = %5
  %8 = tail call i32 @strcasecmp(ptr noundef %0, ptr noundef nonnull @.str.72) #18
  %.not8 = icmp eq i32 %8, 0
  br i1 %.not8, label %13, label %9

9:                                                ; preds = %7
  %10 = tail call i32 @strcasecmp(ptr noundef %0, ptr noundef nonnull @.str.73) #18
  %.not9 = icmp eq i32 %10, 0
  br i1 %.not9, label %13, label %11

11:                                               ; preds = %9
  %12 = tail call i32 (i32, ptr, ...) @logg(i32 noundef 5, ptr noundef nonnull @.str.74, ptr noundef %0) #17
  br label %13

13:                                               ; preds = %9, %7, %5, %3, %1, %11
  %.0 = phi i32 [ -1, %11 ], [ 0, %1 ], [ 1, %3 ], [ 2, %5 ], [ 3, %7 ], [ 4, %9 ]
  ret i32 %.0
}